target datalayout = "e-m:e-p270:32:32-p271:32:32-p272:64:64-i64:64-i128:128-f80:128-n8:16:32:64-S128"
target triple = "x86_64-pc-linux-gnu"

%struct.asn1_string_st = type { i32, i32, ptr, i64 }

@.str.4 = private unnamed_addr constant [1 x i8] zeroinitializer, align 1
@.str.27 = private unnamed_addr constant [15 x i8] c"Bad time value\00", align 1
@.str.28 = private unnamed_addr constant [31 x i8] c"%s %2d %02d:%02d:%02d%.*s %d%s\00", align 1
@mon = internal constant [12 x ptr] [ptr @.str.32, ptr @.str.33, ptr @.str.34, ptr @.str.35, ptr @.str.36, ptr @.str.37, ptr @.str.38, ptr @.str.39, ptr @.str.40, ptr @.str.41, ptr @.str.42, ptr @.str.43], align 16
@.str.29 = private unnamed_addr constant [5 x i8] c" GMT\00", align 1

; Function Attrs: nounwind uwtable
define hidden i32 @ASN1_GENERALIZEDTIME_print(ptr noundef %0, ptr noundef %1) #0 {
  %3 = alloca i32, align 4
  %4 = alloca ptr, align 8
  %5 = alloca ptr, align 8
  %6 = alloca ptr, align 8
  %7 = alloca i32, align 4
  %8 = alloca i32, align 4
  %9 = alloca i32, align 4
  %10 = alloca i32, align 4
  %11 = alloca i32, align 4
  %12 = alloca i32, align 4
  %13 = alloca i32, align 4
  %14 = alloca i32, align 4
  %15 = alloca ptr, align 8
  %16 = alloca i32, align 4
  %17 = alloca i32, align 4
  %18 = alloca i32, align 4
  store ptr %0, ptr %4, align 8, !tbaa !15
  store ptr %1, ptr %5, align 8, !tbaa !45
  call void @llvm.lifetime.start.p0(i64 8, ptr %6) #5
  call void @llvm.lifetime.start.p0(i64 4, ptr %7) #5
  store i32 0, ptr %7, align 4, !tbaa !17
  call void @llvm.lifetime.start.p0(i64 4, ptr %8) #5
  call void @llvm.lifetime.start.p0(i64 4, ptr %9) #5
  store i32 0, ptr %9, align 4, !tbaa !17
  call void @llvm.lifetime.start.p0(i64 4, ptr %10) #5
  store i32 0, ptr %10, align 4, !tbaa !17
  call void @llvm.lifetime.start.p0(i64 4, ptr %11) #5
  store i32 0, ptr %11, align 4, !tbaa !17
  call void @llvm.lifetime.start.p0(i64 4, ptr %12) #5
  store i32 0, ptr %12, align 4, !tbaa !17
  call void @llvm.lifetime.start.p0(i64 4, ptr %13) #5
  store i32 0, ptr %13, align 4, !tbaa !17
  call void @llvm.lifetime.start.p0(i64 4, ptr %14) #5
  store i32 0, ptr %14, align 4, !tbaa !17
  call void @llvm.lifetime.start.p0(i64 8, ptr %15) #5
  store ptr null, ptr %15, align 8, !tbaa !19
  call void @llvm.lifetime.start.p0(i64 4, ptr %16) #5
  store i32 0, ptr %16, align 4, !tbaa !17
  %19 = load ptr, ptr %5, align 8, !tbaa !45
  %20 = getelementptr inbounds nuw %struct.asn1_string_st, ptr %19, i32 0, i32 0
  %21 = load i32, ptr %20, align 8, !tbaa !46
  store i32 %21, ptr %8, align 4, !tbaa !17
  %22 = load ptr, ptr %5, align 8, !tbaa !45
  %23 = getelementptr inbounds nuw %struct.asn1_string_st, ptr %22, i32 0, i32 2
  %24 = load ptr, ptr %23, align 8, !tbaa !48
  store ptr %24, ptr %6, align 8, !tbaa !19
  %25 = load i32, ptr %8, align 4, !tbaa !17
  %26 = icmp slt i32 %25, 12
  br i1 %26, label %27, label %28

27:                                               ; preds = %2
  br label %251

28:                                               ; preds = %2
  %29 = load ptr, ptr %6, align 8, !tbaa !19
  %30 = load i32, ptr %8, align 4, !tbaa !17
  %31 = sub nsw i32 %30, 1
  %32 = sext i32 %31 to i64
  %33 = getelementptr inbounds i8, ptr %29, i64 %32
  %34 = load i8, ptr %33, align 1, !tbaa !21
  %35 = sext i8 %34 to i32
  %36 = icmp eq i32 %35, 90
  br i1 %36, label %37, label %38

37:                                               ; preds = %28
  store i32 1, ptr %7, align 4, !tbaa !17
  br label %38

38:                                               ; preds = %37, %28
  store i32 0, ptr %8, align 4, !tbaa !17
  br label %39

39:                                               ; preds = %60, %38
  %40 = load i32, ptr %8, align 4, !tbaa !17
  %41 = icmp slt i32 %40, 12
  br i1 %41, label %42, label %63

42:                                               ; preds = %39
  %43 = load ptr, ptr %6, align 8, !tbaa !19
  %44 = load i32, ptr %8, align 4, !tbaa !17
  %45 = sext i32 %44 to i64
  %46 = getelementptr inbounds i8, ptr %43, i64 %45
  %47 = load i8, ptr %46, align 1, !tbaa !21
  %48 = sext i8 %47 to i32
  %49 = icmp sgt i32 %48, 57
  br i1 %49, label %58, label %50

50:                                               ; preds = %42
  %51 = load ptr, ptr %6, align 8, !tbaa !19
  %52 = load i32, ptr %8, align 4, !tbaa !17
  %53 = sext i32 %52 to i64
  %54 = getelementptr inbounds i8, ptr %51, i64 %53
  %55 = load i8, ptr %54, align 1, !tbaa !21
  %56 = sext i8 %55 to i32
  %57 = icmp slt i32 %56, 48
  br i1 %57, label %58, label %59

58:                                               ; preds = %50, %42
  br label %251

59:                                               ; preds = %50
  br label %60

60:                                               ; preds = %59
  %61 = load i32, ptr %8, align 4, !tbaa !17
  %62 = add nsw i32 %61, 1
  store i32 %62, ptr %8, align 4, !tbaa !17
  br label %39, !llvm.loop !77

63:                                               ; preds = %39
  %64 = load ptr, ptr %6, align 8, !tbaa !19
  %65 = getelementptr inbounds i8, ptr %64, i64 0
  %66 = load i8, ptr %65, align 1, !tbaa !21
  %67 = sext i8 %66 to i32
  %68 = sub nsw i32 %67, 48
  %69 = mul nsw i32 %68, 1000
  %70 = load ptr, ptr %6, align 8, !tbaa !19
  %71 = getelementptr inbounds i8, ptr %70, i64 1
  %72 = load i8, ptr %71, align 1, !tbaa !21
  %73 = sext i8 %72 to i32
  %74 = sub nsw i32 %73, 48
  %75 = mul nsw i32 %74, 100
  %76 = add nsw i32 %69, %75
  %77 = load ptr, ptr %6, align 8, !tbaa !19
  %78 = getelementptr inbounds i8, ptr %77, i64 2
  %79 = load i8, ptr %78, align 1, !tbaa !21
  %80 = sext i8 %79 to i32
  %81 = sub nsw i32 %80, 48
  %82 = mul nsw i32 %81, 10
  %83 = add nsw i32 %76, %82
  %84 = load ptr, ptr %6, align 8, !tbaa !19
  %85 = getelementptr inbounds i8, ptr %84, i64 3
  %86 = load i8, ptr %85, align 1, !tbaa !21
  %87 = sext i8 %86 to i32
  %88 = sub nsw i32 %87, 48
  %89 = add nsw i32 %83, %88
  store i32 %89, ptr %9, align 4, !tbaa !17
  %90 = load ptr, ptr %6, align 8, !tbaa !19
  %91 = getelementptr inbounds i8, ptr %90, i64 4
  %92 = load i8, ptr %91, align 1, !tbaa !21
  %93 = sext i8 %92 to i32
  %94 = sub nsw i32 %93, 48
  %95 = mul nsw i32 %94, 10
  %96 = load ptr, ptr %6, align 8, !tbaa !19
  %97 = getelementptr inbounds i8, ptr %96, i64 5
  %98 = load i8, ptr %97, align 1, !tbaa !21
  %99 = sext i8 %98 to i32
  %100 = sub nsw i32 %99, 48
  %101 = add nsw i32 %95, %100
  store i32 %101, ptr %10, align 4, !tbaa !17
  %102 = load i32, ptr %10, align 4, !tbaa !17
  %103 = icmp sgt i32 %102, 12
  br i1 %103, label %107, label %104

104:                                              ; preds = %63
  %105 = load i32, ptr %10, align 4, !tbaa !17
  %106 = icmp slt i32 %105, 1
  br i1 %106, label %107, label %108

107:                                              ; preds = %104, %63
  br label %251

108:                                              ; preds = %104
  %109 = load ptr, ptr %6, align 8, !tbaa !19
  %110 = getelementptr inbounds i8, ptr %109, i64 6
  %111 = load i8, ptr %110, align 1, !tbaa !21
  %112 = sext i8 %111 to i32
  %113 = sub nsw i32 %112, 48
  %114 = mul nsw i32 %113, 10
  %115 = load ptr, ptr %6, align 8, !tbaa !19
  %116 = getelementptr inbounds i8, ptr %115, i64 7
  %117 = load i8, ptr %116, align 1, !tbaa !21
  %118 = sext i8 %117 to i32
  %119 = sub nsw i32 %118, 48
  %120 = add nsw i32 %114, %119
  store i32 %120, ptr %11, align 4, !tbaa !17
  %121 = load ptr, ptr %6, align 8, !tbaa !19
  %122 = getelementptr inbounds i8, ptr %121, i64 8
  %123 = load i8, ptr %122, align 1, !tbaa !21
  %124 = sext i8 %123 to i32
  %125 = sub nsw i32 %124, 48
  %126 = mul nsw i32 %125, 10
  %127 = load ptr, ptr %6, align 8, !tbaa !19
  %128 = getelementptr inbounds i8, ptr %127, i64 9
  %129 = load i8, ptr %128, align 1, !tbaa !21
  %130 = sext i8 %129 to i32
  %131 = sub nsw i32 %130, 48
  %132 = add nsw i32 %126, %131
  store i32 %132, ptr %12, align 4, !tbaa !17
  %133 = load ptr, ptr %6, align 8, !tbaa !19
  %134 = getelementptr inbounds i8, ptr %133, i64 10
  %135 = load i8, ptr %134, align 1, !tbaa !21
  %136 = sext i8 %135 to i32
  %137 = sub nsw i32 %136, 48
  %138 = mul nsw i32 %137, 10
  %139 = load ptr, ptr %6, align 8, !tbaa !19
  %140 = getelementptr inbounds i8, ptr %139, i64 11
  %141 = load i8, ptr %140, align 1, !tbaa !21
  %142 = sext i8 %141 to i32
  %143 = sub nsw i32 %142, 48
  %144 = add nsw i32 %138, %143
  store i32 %144, ptr %13, align 4, !tbaa !17
  %145 = load ptr, ptr %5, align 8, !tbaa !45
  %146 = getelementptr inbounds nuw %struct.asn1_string_st, ptr %145, i32 0, i32 0
  %147 = load i32, ptr %146, align 8, !tbaa !46
  %148 = icmp sge i32 %147, 14
  br i1 %148, label %149, label %230

149:                                              ; preds = %108
  %150 = load ptr, ptr %6, align 8, !tbaa !19
  %151 = getelementptr inbounds i8, ptr %150, i64 12
  %152 = load i8, ptr %151, align 1, !tbaa !21
  %153 = sext i8 %152 to i32
  %154 = icmp sge i32 %153, 48
  br i1 %154, label %155, label %230

155:                                              ; preds = %149
  %156 = load ptr, ptr %6, align 8, !tbaa !19
  %157 = getelementptr inbounds i8, ptr %156, i64 12
  %158 = load i8, ptr %157, align 1, !tbaa !21
  %159 = sext i8 %158 to i32
  %160 = icmp sle i32 %159, 57
  br i1 %160, label %161, label %230

161:                                              ; preds = %155
  %162 = load ptr, ptr %6, align 8, !tbaa !19
  %163 = getelementptr inbounds i8, ptr %162, i64 13
  %164 = load i8, ptr %163, align 1, !tbaa !21
  %165 = sext i8 %164 to i32
  %166 = icmp sge i32 %165, 48
  br i1 %166, label %167, label %230

167:                                              ; preds = %161
  %168 = load ptr, ptr %6, align 8, !tbaa !19
  %169 = getelementptr inbounds i8, ptr %168, i64 13
  %170 = load i8, ptr %169, align 1, !tbaa !21
  %171 = sext i8 %170 to i32
  %172 = icmp sle i32 %171, 57
  br i1 %172, label %173, label %230

173:                                              ; preds = %167
  %174 = load ptr, ptr %6, align 8, !tbaa !19
  %175 = getelementptr inbounds i8, ptr %174, i64 12
  %176 = load i8, ptr %175, align 1, !tbaa !21
  %177 = sext i8 %176 to i32
  %178 = sub nsw i32 %177, 48
  %179 = mul nsw i32 %178, 10
  %180 = load ptr, ptr %6, align 8, !tbaa !19
  %181 = getelementptr inbounds i8, ptr %180, i64 13
  %182 = load i8, ptr %181, align 1, !tbaa !21
  %183 = sext i8 %182 to i32
  %184 = sub nsw i32 %183, 48
  %185 = add nsw i32 %179, %184
  store i32 %185, ptr %14, align 4, !tbaa !17
  %186 = load ptr, ptr %5, align 8, !tbaa !45
  %187 = getelementptr inbounds nuw %struct.asn1_string_st, ptr %186, i32 0, i32 0
  %188 = load i32, ptr %187, align 8, !tbaa !46
  %189 = icmp sge i32 %188, 15
  br i1 %189, label %190, label %229

190:                                              ; preds = %173
  %191 = load ptr, ptr %6, align 8, !tbaa !19
  %192 = getelementptr inbounds i8, ptr %191, i64 14
  %193 = load i8, ptr %192, align 1, !tbaa !21
  %194 = sext i8 %193 to i32
  %195 = icmp eq i32 %194, 46
  br i1 %195, label %196, label %229

196:                                              ; preds = %190
  call void @llvm.lifetime.start.p0(i64 4, ptr %17) #5
  %197 = load ptr, ptr %5, align 8, !tbaa !45
  %198 = getelementptr inbounds nuw %struct.asn1_string_st, ptr %197, i32 0, i32 0
  %199 = load i32, ptr %198, align 8, !tbaa !46
  store i32 %199, ptr %17, align 4, !tbaa !17
  %200 = load ptr, ptr %6, align 8, !tbaa !19
  %201 = getelementptr inbounds i8, ptr %200, i64 14
  store ptr %201, ptr %15, align 8, !tbaa !19
  store i32 1, ptr %16, align 4, !tbaa !17
  br label %202

202:                                              ; preds = %225, %196
  %203 = load i32, ptr %16, align 4, !tbaa !17
  %204 = add nsw i32 14, %203
  %205 = load i32, ptr %17, align 4, !tbaa !17
  %206 = icmp slt i32 %204, %205
  br i1 %206, label %207, label %223

207:                                              ; preds = %202
  %208 = load ptr, ptr %15, align 8, !tbaa !19
  %209 = load i32, ptr %16, align 4, !tbaa !17
  %210 = sext i32 %209 to i64
  %211 = getelementptr inbounds i8, ptr %208, i64 %210
  %212 = load i8, ptr %211, align 1, !tbaa !21
  %213 = sext i8 %212 to i32
  %214 = icmp sge i32 %213, 48
  br i1 %214, label %215, label %223

215:                                              ; preds = %207
  %216 = load ptr, ptr %15, align 8, !tbaa !19
  %217 = load i32, ptr %16, align 4, !tbaa !17
  %218 = sext i32 %217 to i64
  %219 = getelementptr inbounds i8, ptr %216, i64 %218
  %220 = load i8, ptr %219, align 1, !tbaa !21
  %221 = sext i8 %220 to i32
  %222 = icmp sle i32 %221, 57
  br label %223

223:                                              ; preds = %215, %207, %202
  %224 = phi i1 [ false, %207 ], [ false, %202 ], [ %222, %215 ]
  br i1 %224, label %225, label %228

225:                                              ; preds = %223
  %226 = load i32, ptr %16, align 4, !tbaa !17
  %227 = add nsw i32 %226, 1
  store i32 %227, ptr %16, align 4, !tbaa !17
  br label %202, !llvm.loop !78

228:                                              ; preds = %223
  call void @llvm.lifetime.end.p0(i64 4, ptr %17) #5
  br label %229

229:                                              ; preds = %228, %190, %173
  br label %230

230:                                              ; preds = %229, %167, %161, %155, %149, %108
  %231 = load ptr, ptr %4, align 8, !tbaa !15
  %232 = load i32, ptr %10, align 4, !tbaa !17
  %233 = sub nsw i32 %232, 1
  %234 = sext i32 %233 to i64
  %235 = getelementptr inbounds [12 x ptr], ptr @mon, i64 0, i64 %234
  %236 = load ptr, ptr %235, align 8, !tbaa !19
  %237 = load i32, ptr %11, align 4, !tbaa !17
  %238 = load i32, ptr %12, align 4, !tbaa !17
  %239 = load i32, ptr %13, align 4, !tbaa !17
  %240 = load i32, ptr %14, align 4, !tbaa !17
  %241 = load i32, ptr %16, align 4, !tbaa !17
  %242 = load ptr, ptr %15, align 8, !tbaa !19
  %243 = load i32, ptr %9, align 4, !tbaa !17
  %244 = load i32, ptr %7, align 4, !tbaa !17
  %245 = icmp ne i32 %244, 0
  %246 = select i1 %245, ptr @.str.29, ptr @.str.4
  %247 = call i32 (ptr, ptr, ...) @BIO_printf(ptr noundef %231, ptr noundef @.str.28, ptr noundef %236, i32 noundef %237, i32 noundef %238, i32 noundef %239, i32 noundef %240, i32 noundef %241, ptr noundef %242, i32 noundef %243, ptr noundef %246)
  %248 = icmp sle i32 %247, 0
  br i1 %248, label %249, label %250

249:                                              ; preds = %230
  store i32 0, ptr %3, align 4
  store i32 1, ptr %18, align 4
  br label %254

250:                                              ; preds = %230
  store i32 1, ptr %3, align 4
  store i32 1, ptr %18, align 4
  br label %254

251:                                              ; preds = %107, %58, %27
  %252 = load ptr, ptr %4, align 8, !tbaa !15
  %253 = call i32 @BIO_write(ptr noundef %252, ptr noundef @.str.27, i32 noundef 14)
  store i32 0, ptr %3, align 4
  store i32 1, ptr %18, align 4
  br label %254

254:                                              ; preds = %251, %250, %249
  call void @llvm.lifetime.end.p0(i64 4, ptr %16) #5
  call void @llvm.lifetime.end.p0(i64 8, ptr %15) #5
  call void @llvm.lifetime.end.p0(i64 4, ptr %14) #5
  call void @llvm.lifetime.end.p0(i64 4, ptr %13) #5
  call void @llvm.lifetime.end.p0(i64 4, ptr %12) #5
  call void @llvm.lifetime.end.p0(i64 4, ptr %11) #5
  call void @llvm.lifetime.end.p0(i64 4, ptr %10) #5
  call void @llvm.lifetime.end.p0(i64 4, ptr %9) #5
  call void @llvm.lifetime.end.p0(i64 4, ptr %8) #5
  call void @llvm.lifetime.end.p0(i64 4, ptr %7) #5
  call void @llvm.lifetime.end.p0(i64 8, ptr %6) #5
  %255 = load i32, ptr %3, align 4
  ret i32 %255
}