; Function Attrs: nounwind uwtable
define hidden range(i32 0, 2) i32 @ASN1_GENERALIZEDTIME_print(ptr noundef %0, ptr noundef readonly captures(none) %1) local_unnamed_addr #0 {
  %3 = load i32, ptr %1, align 8, !tbaa !32
  %4 = getelementptr inbounds nuw i8, ptr %1, i64 8
  %5 = load ptr, ptr %4, align 8, !tbaa !34
  %6 = icmp slt i32 %3, 12
  br i1 %6, label %.loopexit, label %7

7:                                                ; preds = %2
  %8 = zext nneg i32 %3 to i64
  %9 = getelementptr i8, ptr %5, i64 %8
  %10 = getelementptr i8, ptr %9, i64 -1
  %11 = load i8, ptr %10, align 1, !tbaa !35
  %.not69 = icmp eq i8 %11, 90
  br label %13

12:                                               ; preds = %13
  %indvars.iv.next = add nuw nsw i64 %indvars.iv, 1
  %exitcond.not = icmp eq i64 %indvars.iv.next, 12
  br i1 %exitcond.not, label %17, label %13, !llvm.loop !65

13:                                               ; preds = %7, %12
  %indvars.iv = phi i64 [ 0, %7 ], [ %indvars.iv.next, %12 ]
  %14 = getelementptr inbounds nuw i8, ptr %5, i64 %indvars.iv
  %15 = load i8, ptr %14, align 1, !tbaa !35
  %16 = add i8 %15, -58
  %or.cond70 = icmp ult i8 %16, -10
  br i1 %or.cond70, label %.loopexit, label %12

17:                                               ; preds = %12
  %18 = load i8, ptr %5, align 1, !tbaa !35
  %19 = sext i8 %18 to i32
  %20 = mul nsw i32 %19, 1000
  %21 = getelementptr inbounds nuw i8, ptr %5, i64 1
  %22 = load i8, ptr %21, align 1, !tbaa !35
  %23 = sext i8 %22 to i32
  %24 = mul nsw i32 %23, 100
  %25 = getelementptr inbounds nuw i8, ptr %5, i64 2
  %26 = load i8, ptr %25, align 1, !tbaa !35
  %27 = sext i8 %26 to i32
  %28 = mul nsw i32 %27, 10
  %29 = getelementptr inbounds nuw i8, ptr %5, i64 3
  %30 = load i8, ptr %29, align 1, !tbaa !35
  %31 = sext i8 %30 to i32
  %32 = add nsw i32 %20, -53328
  %33 = add nsw i32 %32, %24
  %34 = add nsw i32 %33, %28
  %35 = add nsw i32 %34, %31
  %36 = getelementptr inbounds nuw i8, ptr %5, i64 4
  %37 = load i8, ptr %36, align 1, !tbaa !35
  %38 = sext i8 %37 to i32
  %39 = mul nsw i32 %38, 10
  %40 = getelementptr inbounds nuw i8, ptr %5, i64 5
  %41 = load i8, ptr %40, align 1, !tbaa !35
  %42 = sext i8 %41 to i32
  %43 = add nsw i32 %39, %42
  %44 = add nsw i32 %43, -541
  %or.cond = icmp ult i32 %44, -12
  br i1 %or.cond, label %.loopexit, label %45

45:                                               ; preds = %17
  %46 = getelementptr inbounds nuw i8, ptr %5, i64 6
  %47 = load i8, ptr %46, align 1, !tbaa !35
  %48 = sext i8 %47 to i32
  %49 = mul nsw i32 %48, 10
  %50 = getelementptr inbounds nuw i8, ptr %5, i64 7
  %51 = load i8, ptr %50, align 1, !tbaa !35
  %52 = sext i8 %51 to i32
  %53 = add nsw i32 %52, -528
  %54 = add nsw i32 %53, %49
  %55 = getelementptr inbounds nuw i8, ptr %5, i64 8
  %56 = load i8, ptr %55, align 1, !tbaa !35
  %57 = sext i8 %56 to i32
  %58 = mul nsw i32 %57, 10
  %59 = getelementptr inbounds nuw i8, ptr %5, i64 9
  %60 = load i8, ptr %59, align 1, !tbaa !35
  %61 = sext i8 %60 to i32
  %62 = add nsw i32 %61, -528
  %63 = add nsw i32 %62, %58
  %64 = getelementptr inbounds nuw i8, ptr %5, i64 10
  %65 = load i8, ptr %64, align 1, !tbaa !35
  %66 = sext i8 %65 to i32
  %67 = mul nsw i32 %66, 10
  %68 = getelementptr inbounds nuw i8, ptr %5, i64 11
  %69 = load i8, ptr %68, align 1, !tbaa !35
  %70 = sext i8 %69 to i32
  %71 = add nsw i32 %70, -528
  %72 = add nsw i32 %71, %67
  %73 = icmp sgt i32 %3, 13
  br i1 %73, label %74, label %.critedge

74:                                               ; preds = %45
  %75 = getelementptr inbounds nuw i8, ptr %5, i64 12
  %76 = load i8, ptr %75, align 1, !tbaa !35
  %77 = add i8 %76, -48
  %or.cond71 = icmp ult i8 %77, 10
  br i1 %or.cond71, label %78, label %.critedge

78:                                               ; preds = %74
  %79 = getelementptr inbounds nuw i8, ptr %5, i64 13
  %80 = load i8, ptr %79, align 1, !tbaa !35
  %81 = add i8 %80, -48
  %or.cond72 = icmp ult i8 %81, 10
  br i1 %or.cond72, label %82, label %.critedge

82:                                               ; preds = %78
  %83 = mul i8 %76, 10
  %narrow74 = add nsw i8 %83, 32
  %84 = zext nneg i8 %narrow74 to i32
  %85 = zext nneg i8 %81 to i32
  %86 = add nuw nsw i32 %85, %84
  %.not = icmp eq i32 %3, 14
  br i1 %.not, label %.critedge, label %87

87:                                               ; preds = %82
  %88 = getelementptr inbounds nuw i8, ptr %5, i64 14
  %89 = load i8, ptr %88, align 1, !tbaa !35
  %90 = icmp eq i8 %89, 46
  br i1 %90, label %.preheader, label %.critedge

.preheader:                                       ; preds = %87
  %91 = icmp samesign ugt i32 %3, 15
  br i1 %91, label %.lr.ph.preheader, label %.critedge

.lr.ph.preheader:                                 ; preds = %.preheader
  %92 = add nsw i32 %3, -14
  %wide.trip.count = zext nneg i32 %92 to i64
  br label %.lr.ph

.lr.ph:                                           ; preds = %.lr.ph.preheader, %96
  %indvars.iv80 = phi i64 [ 1, %.lr.ph.preheader ], [ %indvars.iv.next81, %96 ]
  %93 = getelementptr inbounds nuw i8, ptr %88, i64 %indvars.iv80
  %94 = load i8, ptr %93, align 1, !tbaa !35
  %95 = add i8 %94, -48
  %or.cond73 = icmp ult i8 %95, 10
  br i1 %or.cond73, label %96, label %.critedge.loopexit.split.loop.exit84

96:                                               ; preds = %.lr.ph
  %indvars.iv.next81 = add nuw nsw i64 %indvars.iv80, 1
  %exitcond83.not = icmp eq i64 %indvars.iv.next81, %wide.trip.count
  br i1 %exitcond83.not, label %.critedge, label %.lr.ph, !llvm.loop !66

.critedge.loopexit.split.loop.exit84:             ; preds = %.lr.ph
  %97 = trunc nuw nsw i64 %indvars.iv80 to i32
  br label %.critedge

.critedge:                                        ; preds = %96, %.critedge.loopexit.split.loop.exit84, %.preheader, %82, %87, %78, %74, %45
  %.057 = phi i32 [ %86, %87 ], [ %86, %82 ], [ 0, %78 ], [ 0, %74 ], [ 0, %45 ], [ %86, %.preheader ], [ %86, %.critedge.loopexit.split.loop.exit84 ], [ %86, %96 ]
  %.056 = phi ptr [ null, %87 ], [ null, %82 ], [ null, %78 ], [ null, %74 ], [ null, %45 ], [ %88, %.preheader ], [ %88, %.critedge.loopexit.split.loop.exit84 ], [ %88, %96 ]
  %.055 = phi i32 [ 0, %87 ], [ 0, %82 ], [ 0, %78 ], [ 0, %74 ], [ 0, %45 ], [ 1, %.preheader ], [ %97, %.critedge.loopexit.split.loop.exit84 ], [ %92, %96 ]
  %98 = add nsw i32 %43, -529
  %99 = zext nneg i32 %98 to i64
  %100 = getelementptr inbounds nuw [12 x ptr], ptr @mon, i64 0, i64 %99
  %101 = load ptr, ptr %100, align 8, !tbaa !59
  %102 = select i1 %.not69, ptr @.str.29, ptr @.str.4
  %103 = tail call i32 (ptr, ptr, ...) @BIO_printf(ptr noundef %0, ptr noundef nonnull @.str.28, ptr noundef %101, i32 noundef %54, i32 noundef %63, i32 noundef %72, i32 noundef %.057, i32 noundef %.055, ptr noundef %.056, i32 noundef %35, ptr noundef nonnull %102) #5
  %104 = icmp sgt i32 %103, 0
  %. = zext i1 %104 to i32
  br label %106

.loopexit:                                        ; preds = %13, %17, %2
  %105 = tail call i32 @BIO_write(ptr noundef %0, ptr noundef nonnull @.str.27, i32 noundef 14) #5
  br label %106

106:                                              ; preds = %.critedge, %.loopexit
  %.0 = phi i32 [ 0, %.loopexit ], [ %., %.critedge ]
  ret i32 %.0
}